; Function Attrs: nounwind uwtable
define hidden void @zim_ArrayIterator_next(ptr nocapture noundef readonly %0, ptr nocapture readnone %1) #0 {
  %3 = getelementptr inbounds i8, ptr %0, i64 32
  %4 = load ptr, ptr %3, align 8
  %5 = getelementptr inbounds i8, ptr %4, i64 -88
  %6 = getelementptr inbounds i8, ptr %4, i64 -68
  %7 = load i32, ptr %6, align 4
  %8 = and i32 %7, 16777216
  %.not30.i.i = icmp eq i32 %8, 0
  br i1 %.not30.i.i, label %.lr.ph.i.i, label %tailrecurse._crit_edge.i.i

tailrecurse._crit_edge.i.i:                       ; preds = %tailrecurse.i.i, %2
  %.tr.lcssa.i.i = phi ptr [ %5, %2 ], [ %16, %tailrecurse.i.i ]
  %9 = getelementptr inbounds i8, ptr %.tr.lcssa.i.i, i64 120
  %10 = load ptr, ptr %9, align 8
  %.not28.i.i = icmp eq ptr %10, null
  br i1 %.not28.i.i, label %11, label %spl_array_get_hash_table.exit

11:                                               ; preds = %tailrecurse._crit_edge.i.i
  %12 = getelementptr inbounds i8, ptr %.tr.lcssa.i.i, i64 88
  tail call void @rebuild_object_properties(ptr noundef nonnull %12) #11
  br label %spl_array_get_hash_table.exit

.lr.ph.i.i:                                       ; preds = %2, %tailrecurse.i.i
  %13 = phi i32 [ %18, %tailrecurse.i.i ], [ %7, %2 ]
  %.tr31.i.i = phi ptr [ %16, %tailrecurse.i.i ], [ %5, %2 ]
  %14 = and i32 %13, 33554432
  %.not25.i.i = icmp eq i32 %14, 0
  br i1 %.not25.i.i, label %20, label %tailrecurse.i.i

tailrecurse.i.i:                                  ; preds = %.lr.ph.i.i
  %15 = load ptr, ptr %.tr31.i.i, align 8
  %16 = getelementptr inbounds i8, ptr %15, i64 -88
  %17 = getelementptr inbounds i8, ptr %15, i64 -68
  %18 = load i32, ptr %17, align 4
  %19 = and i32 %18, 16777216
  %.not.i.i = icmp eq i32 %19, 0
  br i1 %.not.i.i, label %.lr.ph.i.i, label %tailrecurse._crit_edge.i.i

20:                                               ; preds = %.lr.ph.i.i
  %21 = getelementptr inbounds i8, ptr %.tr31.i.i, i64 8
  %22 = load i8, ptr %21, align 8
  %23 = icmp eq i8 %22, 7
  br i1 %23, label %spl_array_get_hash_table.exit, label %24

24:                                               ; preds = %20
  %25 = load ptr, ptr %.tr31.i.i, align 8
  %26 = getelementptr inbounds i8, ptr %25, i64 32
  %27 = load ptr, ptr %26, align 8
  %.not26.i.i = icmp eq ptr %27, null
  br i1 %.not26.i.i, label %28, label %29

28:                                               ; preds = %24
  tail call void @rebuild_object_properties(ptr noundef nonnull %25) #11
  br label %spl_array_get_hash_table.exit

29:                                               ; preds = %24
  %30 = load i32, ptr %27, align 4
  %31 = icmp ugt i32 %30, 1
  br i1 %31, label %32, label %spl_array_get_hash_table.exit

32:                                               ; preds = %29
  %33 = getelementptr inbounds i8, ptr %27, i64 4
  %34 = load i32, ptr %33, align 4
  %35 = and i32 %34, 64
  %.not27.i.i = icmp eq i32 %35, 0
  br i1 %.not27.i.i, label %36, label %38

36:                                               ; preds = %32
  %37 = add i32 %30, -1
  store i32 %37, ptr %27, align 4
  %.pre.i.i = load ptr, ptr %26, align 8
  br label %38

38:                                               ; preds = %36, %32
  %39 = phi ptr [ %.pre.i.i, %36 ], [ %27, %32 ]
  %40 = tail call ptr @zend_array_dup(ptr noundef %39) #11
  store ptr %40, ptr %26, align 8
  br label %spl_array_get_hash_table.exit

spl_array_get_hash_table.exit:                    ; preds = %tailrecurse._crit_edge.i.i, %11, %20, %28, %29, %38
  %.0.i.i = phi ptr [ %9, %11 ], [ %9, %tailrecurse._crit_edge.i.i ], [ %.tr31.i.i, %20 ], [ %26, %29 ], [ %26, %38 ], [ %26, %28 ]
  %41 = getelementptr inbounds i8, ptr %0, i64 44
  %42 = load i32, ptr %41, align 4
  %.not = icmp eq i32 %42, 0
  br i1 %.not, label %.critedge, label %43

43:                                               ; preds = %spl_array_get_hash_table.exit
  tail call void @zend_wrong_parameters_none_error() #11
  %44 = load ptr, ptr getelementptr inbounds (%struct._zend_executor_globals, ptr @executor_globals, i64 0, i32 50), align 8
  %45 = icmp ne ptr %44, null
  tail call void @llvm.assume(i1 %45)
  br label %48

.critedge:                                        ; preds = %spl_array_get_hash_table.exit
  %46 = load ptr, ptr %.0.i.i, align 8
  %47 = tail call fastcc i32 @spl_array_next_ex(ptr noundef nonnull %5, ptr noundef %46), !range !4
  br label %48

48:                                               ; preds = %.critedge, %43
  ret void
}